; Function Attrs: mustprogress uwtable
define dso_local noundef i64 @_ZNK4Luau19EqSatSimplification6TTable4HashclERKS1_(ptr noundef nonnull readnone align 1 captures(none) dereferenceable(1) %0, ptr noundef nonnull readonly align 8 captures(none) dereferenceable(48) %1) local_unnamed_addr #5 align 2 {
  %3 = alloca %"struct.std::hash", align 1
  %4 = load ptr, ptr %1, align 8, !tbaa !33
  %5 = getelementptr inbounds nuw i8, ptr %1, i64 8
  %6 = load ptr, ptr %5, align 8, !tbaa !33
  %.not10 = icmp eq ptr %4, %6
  br i1 %.not10, label %._crit_edge, label %.lr.ph

._crit_edge:                                      ; preds = %.lr.ph, %2
  %.0.lcssa = phi i64 [ 0, %2 ], [ %32, %.lr.ph ]
  %7 = getelementptr inbounds nuw i8, ptr %1, i64 24
  %8 = load ptr, ptr %7, align 8, !tbaa !26
  %9 = getelementptr inbounds nuw i8, ptr %1, i64 32
  %10 = load ptr, ptr %9, align 8, !tbaa !26
  %.not8.i.i = icmp eq ptr %8, %10
  br i1 %.not8.i.i, label %_ZN4Luau5EqSat12languageHashISt6vectorINS0_2IdESaIS3_EEEEmRKT_.exit, label %.lr.ph.i.i

.lr.ph.i.i:                                       ; preds = %._crit_edge, %.lr.ph.i.i
  %.010.i.i = phi i64 [ %17, %.lr.ph.i.i ], [ 0, %._crit_edge ]
  %.sroa.04.09.i.i = phi ptr [ %18, %.lr.ph.i.i ], [ %8, %._crit_edge ]
  call void @llvm.lifetime.start.p0(i64 1, ptr nonnull %3) #37
  %.sroa.0.0.copyload.i.i.i.i = load i32, ptr %.sroa.04.09.i.i, align 4, !tbaa !4
  %11 = call noundef i64 @_ZNKSt4hashIN4Luau5EqSat2IdEEclES2_(ptr noundef nonnull align 1 dereferenceable(1) %3, i32 %.sroa.0.0.copyload.i.i.i.i)
  call void @llvm.lifetime.end.p0(i64 1, ptr nonnull %3) #37
  %12 = shl i64 %.010.i.i, 6
  %13 = lshr i64 %.010.i.i, 2
  %14 = add i64 %12, 2654435769
  %15 = add i64 %14, %13
  %16 = add i64 %15, %11
  %17 = xor i64 %16, %.010.i.i
  %18 = getelementptr inbounds nuw i8, ptr %.sroa.04.09.i.i, i64 4
  %.not.i.i = icmp eq ptr %18, %10
  br i1 %.not.i.i, label %_ZN4Luau5EqSat12languageHashISt6vectorINS0_2IdESaIS3_EEEEmRKT_.exit, label %.lr.ph.i.i

_ZN4Luau5EqSat12languageHashISt6vectorINS0_2IdESaIS3_EEEEmRKT_.exit: ; preds = %.lr.ph.i.i, %._crit_edge
  %.0.lcssa.i.i = phi i64 [ 0, %._crit_edge ], [ %17, %.lr.ph.i.i ]
  %19 = shl i64 %.0.lcssa, 6
  %20 = lshr i64 %.0.lcssa, 2
  %21 = add i64 %19, 2654435769
  %22 = add i64 %21, %20
  %23 = add i64 %22, %.0.lcssa.i.i
  %24 = xor i64 %23, %.0.lcssa
  ret i64 %24

.lr.ph:                                           ; preds = %2, %.lr.ph
  %.012 = phi i64 [ %32, %.lr.ph ], [ 0, %2 ]
  %.sroa.04.011 = phi ptr [ %33, %.lr.ph ], [ %4, %2 ]
  %25 = load i32, ptr %.sroa.04.011, align 4, !tbaa !4
  %26 = zext i32 %25 to i64
  %27 = shl i64 %.012, 6
  %28 = lshr i64 %.012, 2
  %29 = add i64 %27, 2654435769
  %30 = add i64 %29, %28
  %31 = add i64 %30, %26
  %32 = xor i64 %31, %.012
  %33 = getelementptr inbounds nuw i8, ptr %.sroa.04.011, i64 4
  %.not = icmp eq ptr %33, %6
  br i1 %.not, label %._crit_edge, label %.lr.ph
}